#include <math.h>
#include <stdio.h>
#include <stdlib.h>
#include <string.h>

main()
{
	int a,i,j,k,n,b=0;
	scanf("%d",&n);
	for(i=2;i<=n-2;i++)
	{
		a=1;
		for(j=2;j<=i/2;j++)
		    if(i%j==0) {a=0;break;}
		if(a)
		  for(k=2;k<=(i+2)/2;k++)
			if((i+2)%k==0)  {a=0;break;}
		if(a==1) {printf("%d %d\n",i,i+2);b++;}
    }
	if(b==0)
	  printf("empty");
} 